target datalayout = "e-m:e-p270:32:32-p271:32:32-p272:64:64-i64:64-i128:128-f80:128-n8:16:32:64-S128"
target triple = "x86_64-pc-linux-gnu"

@.str.14 = private unnamed_addr constant [24 x i8] c"../openssl/test/v3ext.c\00", align 1
@infile = internal global ptr null, align 8
@.str.23 = private unnamed_addr constant [30 x i8] c"b = BIO_new_file(infile, \22r\22)\00", align 1
@.str.24 = private unnamed_addr constant [2 x i8] c"r\00", align 1
@.str.25 = private unnamed_addr constant [43 x i8] c"x = PEM_read_bio_X509(b, NULL, NULL, NULL)\00", align 1
@.str.26 = private unnamed_addr constant [30 x i8] c"pathlen = X509_get_pathlen(x)\00", align 1
@.str.27 = private unnamed_addr constant [2 x i8] c"6\00", align 1

; Function Attrs: nounwind uwtable
define internal i32 @test_pathlen() #0 {
  %1 = alloca ptr, align 8
  %2 = alloca ptr, align 8
  %3 = alloca i64, align 8
  %4 = alloca i32, align 4
  call void @llvm.lifetime.start.p0(i64 8, ptr %1) #6
  store ptr null, ptr %1, align 8, !tbaa !9
  call void @llvm.lifetime.start.p0(i64 8, ptr %2) #6
  store ptr null, ptr %2, align 8, !tbaa !11
  call void @llvm.lifetime.start.p0(i64 8, ptr %3) #6
  call void @llvm.lifetime.start.p0(i64 4, ptr %4) #6
  store i32 0, ptr %4, align 4, !tbaa !13
  %5 = load ptr, ptr @infile, align 8, !tbaa !4
  %6 = call ptr @BIO_new_file(ptr noundef %5, ptr noundef @.str.24)
  store ptr %6, ptr %2, align 8, !tbaa !11
  %7 = call i32 @test_ptr(ptr noundef @.str.14, i32 noundef 29, ptr noundef @.str.23, ptr noundef %6)
  %8 = icmp ne i32 %7, 0
  br i1 %8, label %9, label %20

9:                                                ; preds = %0
  %10 = load ptr, ptr %2, align 8, !tbaa !11
  %11 = call ptr @PEM_read_bio_X509(ptr noundef %10, ptr noundef null, ptr noundef null, ptr noundef null)
  store ptr %11, ptr %1, align 8, !tbaa !9
  %12 = call i32 @test_ptr(ptr noundef @.str.14, i32 noundef 30, ptr noundef @.str.25, ptr noundef %11)
  %13 = icmp ne i32 %12, 0
  br i1 %13, label %14, label %20

14:                                               ; preds = %9
  %15 = load ptr, ptr %1, align 8, !tbaa !9
  %16 = call i64 @X509_get_pathlen(ptr noundef %15)
  store i64 %16, ptr %3, align 8, !tbaa !15
  %17 = trunc i64 %16 to i32
  %18 = call i32 @test_int_eq(ptr noundef @.str.14, i32 noundef 31, ptr noundef @.str.26, ptr noundef @.str.27, i32 noundef %17, i32 noundef 6)
  %19 = icmp ne i32 %18, 0
  br i1 %19, label %21, label %20

20:                                               ; preds = %14, %9, %0
  br label %22

21:                                               ; preds = %14
  store i32 1, ptr %4, align 4, !tbaa !13
  br label %22

22:                                               ; preds = %21, %20
  %23 = load ptr, ptr %2, align 8, !tbaa !11
  %24 = call i32 @BIO_free(ptr noundef %23)
  %25 = load ptr, ptr %1, align 8, !tbaa !9
  call void @X509_free(ptr noundef %25)
  %26 = load i32, ptr %4, align 4, !tbaa !13
  call void @llvm.lifetime.end.p0(i64 4, ptr %4) #6
  call void @llvm.lifetime.end.p0(i64 8, ptr %3) #6
  call void @llvm.lifetime.end.p0(i64 8, ptr %2) #6
  call void @llvm.lifetime.end.p0(i64 8, ptr %1) #6
  ret i32 %26
}