; Function Attrs: nounwind uwtable
define internal range(i32 0, 2) i32 @test_pathlen() #1 {
  %1 = load ptr, ptr @infile, align 8, !tbaa !4
  %2 = tail call ptr @BIO_new_file(ptr noundef %1, ptr noundef nonnull @.str.24) #6
  %3 = tail call i32 @test_ptr(ptr noundef nonnull @.str.14, i32 noundef 29, ptr noundef nonnull @.str.23, ptr noundef %2) #6
  %.not = icmp eq i32 %3, 0
  br i1 %.not, label %11, label %4

4:                                                ; preds = %0
  %5 = tail call ptr @PEM_read_bio_X509(ptr noundef %2, ptr noundef null, ptr noundef null, ptr noundef null) #6
  %6 = tail call i32 @test_ptr(ptr noundef nonnull @.str.14, i32 noundef 30, ptr noundef nonnull @.str.25, ptr noundef %5) #6
  %.not5 = icmp eq i32 %6, 0
  br i1 %.not5, label %11, label %7

7:                                                ; preds = %4
  %8 = tail call i64 @X509_get_pathlen(ptr noundef %5) #6
  %9 = trunc i64 %8 to i32
  %10 = tail call i32 @test_int_eq(ptr noundef nonnull @.str.14, i32 noundef 31, ptr noundef nonnull @.str.26, ptr noundef nonnull @.str.27, i32 noundef %9, i32 noundef 6) #6
  %.not6 = icmp ne i32 %10, 0
  %spec.select = zext i1 %.not6 to i32
  br label %11

11:                                               ; preds = %7, %0, %4
  %.04 = phi ptr [ %5, %4 ], [ null, %0 ], [ %5, %7 ]
  %.0 = phi i32 [ 0, %4 ], [ 0, %0 ], [ %spec.select, %7 ]
  %12 = tail call i32 @BIO_free(ptr noundef %2) #6
  tail call void @X509_free(ptr noundef %.04) #6
  ret i32 %.0
}